target datalayout = "e-m:e-p270:32:32-p271:32:32-p272:64:64-i64:64-i128:128-f80:128-n8:16:32:64-S128"
target triple = "x86_64-pc-linux-gnu"

; Function Attrs: nounwind uwtable
define internal zeroext i1 @SDL_ConvertPixels_SwapUVPlanes(i32 noundef %0, i32 noundef %1, ptr noundef %2, i32 noundef %3, ptr noundef %4, i32 noundef %5) #0 {
  %7 = alloca i1, align 1
  %8 = alloca i32, align 4
  %9 = alloca i32, align 4
  %10 = alloca ptr, align 8
  %11 = alloca i32, align 4
  %12 = alloca ptr, align 8
  %13 = alloca i32, align 4
  %14 = alloca i32, align 4
  %15 = alloca i32, align 4
  %16 = alloca i32, align 4
  %17 = alloca i32, align 4
  %18 = alloca ptr, align 8
  %19 = alloca ptr, align 8
  %20 = alloca ptr, align 8
  %21 = alloca i32, align 4
  %22 = alloca ptr, align 8
  %23 = alloca ptr, align 8
  %24 = alloca i32, align 4
  %25 = alloca i32, align 4
  store i32 %0, ptr %8, align 4
  store i32 %1, ptr %9, align 4
  store ptr %2, ptr %10, align 8
  store i32 %3, ptr %11, align 4
  store ptr %4, ptr %12, align 8
  store i32 %5, ptr %13, align 4
  call void @llvm.lifetime.start.p0(i64 4, ptr %14) #7
  call void @llvm.lifetime.start.p0(i64 4, ptr %15) #7
  %26 = load i32, ptr %8, align 4
  %27 = add nsw i32 %26, 1
  %28 = sdiv i32 %27, 2
  store i32 %28, ptr %15, align 4
  call void @llvm.lifetime.start.p0(i64 4, ptr %16) #7
  %29 = load i32, ptr %9, align 4
  %30 = add nsw i32 %29, 1
  %31 = sdiv i32 %30, 2
  store i32 %31, ptr %16, align 4
  %32 = load ptr, ptr %10, align 8
  %33 = load i32, ptr %9, align 4
  %34 = load i32, ptr %11, align 4
  %35 = mul nsw i32 %33, %34
  %36 = sext i32 %35 to i64
  %37 = getelementptr inbounds i8, ptr %32, i64 %36
  store ptr %37, ptr %10, align 8
  %38 = load ptr, ptr %12, align 8
  %39 = load i32, ptr %9, align 4
  %40 = load i32, ptr %13, align 4
  %41 = mul nsw i32 %39, %40
  %42 = sext i32 %41 to i64
  %43 = getelementptr inbounds i8, ptr %38, i64 %42
  store ptr %43, ptr %12, align 8
  %44 = load ptr, ptr %10, align 8
  %45 = load ptr, ptr %12, align 8
  %46 = icmp eq ptr %44, %45
  br i1 %46, label %47, label %98

47:                                               ; preds = %6
  call void @llvm.lifetime.start.p0(i64 4, ptr %17) #7
  %48 = load i32, ptr %13, align 4
  %49 = add nsw i32 %48, 1
  %50 = sdiv i32 %49, 2
  store i32 %50, ptr %17, align 4
  call void @llvm.lifetime.start.p0(i64 8, ptr %18) #7
  call void @llvm.lifetime.start.p0(i64 8, ptr %19) #7
  %51 = load ptr, ptr %12, align 8
  store ptr %51, ptr %19, align 8
  call void @llvm.lifetime.start.p0(i64 8, ptr %20) #7
  %52 = load ptr, ptr %19, align 8
  %53 = load i32, ptr %16, align 4
  %54 = load i32, ptr %17, align 4
  %55 = mul nsw i32 %53, %54
  %56 = sext i32 %55 to i64
  %57 = getelementptr inbounds i8, ptr %52, i64 %56
  store ptr %57, ptr %20, align 8
  %58 = load i32, ptr %15, align 4
  %59 = sext i32 %58 to i64
  %60 = call noalias ptr @SDL_malloc_REAL(i64 noundef %59)
  store ptr %60, ptr %18, align 8
  %61 = load ptr, ptr %18, align 8
  %62 = icmp ne ptr %61, null
  br i1 %62, label %64, label %63

63:                                               ; preds = %47
  store i1 false, ptr %7, align 1
  store i32 1, ptr %21, align 4
  br label %95

64:                                               ; preds = %47
  store i32 0, ptr %14, align 4
  br label %65

65:                                               ; preds = %90, %64
  %66 = load i32, ptr %14, align 4
  %67 = load i32, ptr %16, align 4
  %68 = icmp slt i32 %66, %67
  br i1 %68, label %69, label %93

69:                                               ; preds = %65
  %70 = load ptr, ptr %18, align 8
  %71 = load ptr, ptr %19, align 8
  %72 = load i32, ptr %15, align 4
  %73 = sext i32 %72 to i64
  call void @llvm.memcpy.p0.p0.i64(ptr align 1 %70, ptr align 1 %71, i64 %73, i1 false)
  %74 = load ptr, ptr %19, align 8
  %75 = load ptr, ptr %20, align 8
  %76 = load i32, ptr %15, align 4
  %77 = sext i32 %76 to i64
  call void @llvm.memcpy.p0.p0.i64(ptr align 1 %74, ptr align 1 %75, i64 %77, i1 false)
  %78 = load ptr, ptr %20, align 8
  %79 = load ptr, ptr %18, align 8
  %80 = load i32, ptr %15, align 4
  %81 = sext i32 %80 to i64
  call void @llvm.memcpy.p0.p0.i64(ptr align 1 %78, ptr align 1 %79, i64 %81, i1 false)
  %82 = load i32, ptr %17, align 4
  %83 = load ptr, ptr %19, align 8
  %84 = sext i32 %82 to i64
  %85 = getelementptr inbounds i8, ptr %83, i64 %84
  store ptr %85, ptr %19, align 8
  %86 = load i32, ptr %17, align 4
  %87 = load ptr, ptr %20, align 8
  %88 = sext i32 %86 to i64
  %89 = getelementptr inbounds i8, ptr %87, i64 %88
  store ptr %89, ptr %20, align 8
  br label %90

90:                                               ; preds = %69
  %91 = load i32, ptr %14, align 4
  %92 = add nsw i32 %91, 1
  store i32 %92, ptr %14, align 4
  br label %65, !llvm.loop !40

93:                                               ; preds = %65
  %94 = load ptr, ptr %18, align 8
  call void @SDL_free_REAL(ptr noundef %94)
  store i32 0, ptr %21, align 4
  br label %95

95:                                               ; preds = %93, %63
  call void @llvm.lifetime.end.p0(i64 8, ptr %20) #7
  call void @llvm.lifetime.end.p0(i64 8, ptr %19) #7
  call void @llvm.lifetime.end.p0(i64 8, ptr %18) #7
  call void @llvm.lifetime.end.p0(i64 4, ptr %17) #7
  %96 = load i32, ptr %21, align 4
  switch i32 %96, label %156 [
    i32 0, label %97
  ]

97:                                               ; preds = %95
  br label %155

98:                                               ; preds = %6
  call void @llvm.lifetime.start.p0(i64 8, ptr %22) #7
  call void @llvm.lifetime.start.p0(i64 8, ptr %23) #7
  call void @llvm.lifetime.start.p0(i64 4, ptr %24) #7
  %99 = load i32, ptr %11, align 4
  %100 = add nsw i32 %99, 1
  %101 = sdiv i32 %100, 2
  store i32 %101, ptr %24, align 4
  call void @llvm.lifetime.start.p0(i64 4, ptr %25) #7
  %102 = load i32, ptr %13, align 4
  %103 = add nsw i32 %102, 1
  %104 = sdiv i32 %103, 2
  store i32 %104, ptr %25, align 4
  %105 = load ptr, ptr %10, align 8
  store ptr %105, ptr %22, align 8
  %106 = load ptr, ptr %12, align 8
  %107 = load i32, ptr %16, align 4
  %108 = load i32, ptr %25, align 4
  %109 = mul nsw i32 %107, %108
  %110 = sext i32 %109 to i64
  %111 = getelementptr inbounds i8, ptr %106, i64 %110
  store ptr %111, ptr %23, align 8
  store i32 0, ptr %14, align 4
  br label %112

112:                                              ; preds = %129, %98
  %113 = load i32, ptr %14, align 4
  %114 = load i32, ptr %16, align 4
  %115 = icmp slt i32 %113, %114
  br i1 %115, label %116, label %132

116:                                              ; preds = %112
  %117 = load ptr, ptr %23, align 8
  %118 = load ptr, ptr %22, align 8
  %119 = load i32, ptr %15, align 4
  %120 = sext i32 %119 to i64
  call void @llvm.memcpy.p0.p0.i64(ptr align 1 %117, ptr align 1 %118, i64 %120, i1 false)
  %121 = load i32, ptr %24, align 4
  %122 = load ptr, ptr %22, align 8
  %123 = sext i32 %121 to i64
  %124 = getelementptr inbounds i8, ptr %122, i64 %123
  store ptr %124, ptr %22, align 8
  %125 = load i32, ptr %25, align 4
  %126 = load ptr, ptr %23, align 8
  %127 = sext i32 %125 to i64
  %128 = getelementptr inbounds i8, ptr %126, i64 %127
  store ptr %128, ptr %23, align 8
  br label %129

129:                                              ; preds = %116
  %130 = load i32, ptr %14, align 4
  %131 = add nsw i32 %130, 1
  store i32 %131, ptr %14, align 4
  br label %112, !llvm.loop !41

132:                                              ; preds = %112
  %133 = load ptr, ptr %12, align 8
  store ptr %133, ptr %23, align 8
  store i32 0, ptr %14, align 4
  br label %134

134:                                              ; preds = %151, %132
  %135 = load i32, ptr %14, align 4
  %136 = load i32, ptr %16, align 4
  %137 = icmp slt i32 %135, %136
  br i1 %137, label %138, label %154

138:                                              ; preds = %134
  %139 = load ptr, ptr %23, align 8
  %140 = load ptr, ptr %22, align 8
  %141 = load i32, ptr %15, align 4
  %142 = sext i32 %141 to i64
  call void @llvm.memcpy.p0.p0.i64(ptr align 1 %139, ptr align 1 %140, i64 %142, i1 false)
  %143 = load i32, ptr %24, align 4
  %144 = load ptr, ptr %22, align 8
  %145 = sext i32 %143 to i64
  %146 = getelementptr inbounds i8, ptr %144, i64 %145
  store ptr %146, ptr %22, align 8
  %147 = load i32, ptr %25, align 4
  %148 = load ptr, ptr %23, align 8
  %149 = sext i32 %147 to i64
  %150 = getelementptr inbounds i8, ptr %148, i64 %149
  store ptr %150, ptr %23, align 8
  br label %151

151:                                              ; preds = %138
  %152 = load i32, ptr %14, align 4
  %153 = add nsw i32 %152, 1
  store i32 %153, ptr %14, align 4
  br label %134, !llvm.loop !42

154:                                              ; preds = %134
  call void @llvm.lifetime.end.p0(i64 4, ptr %25) #7
  call void @llvm.lifetime.end.p0(i64 4, ptr %24) #7
  call void @llvm.lifetime.end.p0(i64 8, ptr %23) #7
  call void @llvm.lifetime.end.p0(i64 8, ptr %22) #7
  br label %155

155:                                              ; preds = %154, %97
  store i1 true, ptr %7, align 1
  store i32 1, ptr %21, align 4
  br label %156

156:                                              ; preds = %155, %95
  call void @llvm.lifetime.end.p0(i64 4, ptr %16) #7
  call void @llvm.lifetime.end.p0(i64 4, ptr %15) #7
  call void @llvm.lifetime.end.p0(i64 4, ptr %14) #7
  %157 = load i1, ptr %7, align 1
  ret i1 %157
}