; Function Attrs: nounwind uwtable
define internal fastcc noundef zeroext i1 @SDL_ConvertPixels_SwapUVPlanes(i32 noundef %0, i32 noundef %1, ptr noundef readonly captures(address) %2, i32 noundef %3, ptr noundef captures(address) %4, i32 noundef %5) unnamed_addr #0 {
  %7 = add nsw i32 %0, 1
  %8 = sdiv i32 %7, 2
  %9 = add nsw i32 %1, 1
  %10 = sdiv i32 %9, 2
  %11 = mul nsw i32 %3, %1
  %12 = sext i32 %11 to i64
  %13 = getelementptr inbounds i8, ptr %2, i64 %12
  %14 = mul nsw i32 %5, %1
  %15 = sext i32 %14 to i64
  %16 = getelementptr inbounds i8, ptr %4, i64 %15
  %17 = icmp eq ptr %13, %16
  br i1 %17, label %18, label %33

18:                                               ; preds = %6
  %19 = add nsw i32 %5, 1
  %20 = sdiv i32 %19, 2
  %21 = sext i32 %8 to i64
  %22 = tail call noalias ptr @SDL_malloc_REAL(i64 noundef %21) #7
  %.not.not = icmp eq ptr %22, null
  br i1 %.not.not, label %.critedge, label %23

23:                                               ; preds = %18
  %24 = icmp sgt i32 %1, 0
  br i1 %24, label %.lr.ph85, label %._crit_edge

.lr.ph85:                                         ; preds = %23
  %25 = mul nsw i32 %20, %10
  %26 = sext i32 %25 to i64
  %27 = getelementptr inbounds i8, ptr %16, i64 %26
  %28 = sext i32 %20 to i64
  %smax88 = tail call i32 @llvm.smax.i32(i32 %10, i32 1)
  br label %29

29:                                               ; preds = %.lr.ph85, %29
  %.06784 = phi ptr [ %27, %.lr.ph85 ], [ %31, %29 ]
  %.06883 = phi ptr [ %16, %.lr.ph85 ], [ %30, %29 ]
  %.06982 = phi i32 [ 0, %.lr.ph85 ], [ %32, %29 ]
  tail call void @llvm.memcpy.p0.p0.i64(ptr nonnull align 1 %22, ptr align 1 %.06883, i64 %21, i1 false)
  tail call void @llvm.memcpy.p0.p0.i64(ptr align 1 %.06883, ptr align 1 %.06784, i64 %21, i1 false)
  tail call void @llvm.memcpy.p0.p0.i64(ptr align 1 %.06784, ptr nonnull align 1 %22, i64 %21, i1 false)
  %30 = getelementptr inbounds i8, ptr %.06883, i64 %28
  %31 = getelementptr inbounds i8, ptr %.06784, i64 %28
  %32 = add nuw nsw i32 %.06982, 1
  %exitcond89.not = icmp eq i32 %32, %smax88
  br i1 %exitcond89.not, label %._crit_edge, label %29, !llvm.loop !58

._crit_edge:                                      ; preds = %29, %23
  tail call void @SDL_free_REAL(ptr noundef nonnull %22) #7
  br label %.critedge

33:                                               ; preds = %6
  %34 = add nsw i32 %3, 1
  %35 = sdiv i32 %34, 2
  %36 = add nsw i32 %5, 1
  %37 = sdiv i32 %36, 2
  %38 = icmp sgt i32 %1, 0
  br i1 %38, label %.lr.ph, label %.critedge

.lr.ph:                                           ; preds = %33
  %39 = mul nsw i32 %37, %10
  %40 = sext i32 %39 to i64
  %41 = getelementptr inbounds i8, ptr %16, i64 %40
  %42 = sext i32 %8 to i64
  %43 = sext i32 %35 to i64
  %44 = sext i32 %37 to i64
  %smax = tail call i32 @llvm.smax.i32(i32 %10, i32 1)
  br label %48

.lr.ph81:                                         ; preds = %48
  %45 = sext i32 %8 to i64
  %46 = sext i32 %35 to i64
  %47 = sext i32 %37 to i64
  %smax86 = tail call i32 @llvm.smax.i32(i32 %10, i32 1)
  br label %52

48:                                               ; preds = %.lr.ph, %48
  %.06277 = phi ptr [ %41, %.lr.ph ], [ %50, %48 ]
  %.06476 = phi ptr [ %13, %.lr.ph ], [ %49, %48 ]
  %.17075 = phi i32 [ 0, %.lr.ph ], [ %51, %48 ]
  tail call void @llvm.memcpy.p0.p0.i64(ptr align 1 %.06277, ptr align 1 %.06476, i64 %42, i1 false)
  %49 = getelementptr inbounds i8, ptr %.06476, i64 %43
  %50 = getelementptr inbounds i8, ptr %.06277, i64 %44
  %51 = add nuw nsw i32 %.17075, 1
  %exitcond.not = icmp eq i32 %51, %smax
  br i1 %exitcond.not, label %.lr.ph81, label %48, !llvm.loop !59

52:                                               ; preds = %.lr.ph81, %52
  %.16380 = phi ptr [ %16, %.lr.ph81 ], [ %54, %52 ]
  %.16579 = phi ptr [ %49, %.lr.ph81 ], [ %53, %52 ]
  %.278 = phi i32 [ 0, %.lr.ph81 ], [ %55, %52 ]
  tail call void @llvm.memcpy.p0.p0.i64(ptr align 1 %.16380, ptr align 1 %.16579, i64 %45, i1 false)
  %53 = getelementptr inbounds i8, ptr %.16579, i64 %46
  %54 = getelementptr inbounds i8, ptr %.16380, i64 %47
  %55 = add nuw nsw i32 %.278, 1
  %exitcond87.not = icmp eq i32 %55, %smax86
  br i1 %exitcond87.not, label %.critedge, label %52, !llvm.loop !60

.critedge:                                        ; preds = %52, %33, %._crit_edge, %18
  %.1 = phi i1 [ false, %18 ], [ true, %._crit_edge ], [ true, %33 ], [ true, %52 ]
  ret i1 %.1
}